; Function Attrs: mustprogress uwtable
define noundef zeroext i1 @_ZN18OpenImageIO_v2_6_010Filesystem15write_text_fileENS_17basic_string_viewIcSt11char_traitsIcEEES4_(ptr nocapture noundef readonly %filename, ptr nocapture noundef readonly %str) local_unnamed_addr #5 personality ptr @__gxx_personality_v0 {
entry:
  %out = alloca %"class.std::basic_ofstream", align 8
  %agg.tmp = alloca %"class.OpenImageIO_v2_6_0::basic_string_view", align 8
  call void @_ZNSt14basic_ofstreamIcSt11char_traitsIcEEC1Ev(ptr noundef nonnull align 8 dereferenceable(248) %out)
  %0 = load ptr, ptr %filename, align 8
  store ptr %0, ptr %agg.tmp, align 8
  %m_len.i = getelementptr inbounds i8, ptr %agg.tmp, i64 8
  %m_len.i.i = getelementptr inbounds i8, ptr %filename, i64 8
  %1 = load i64, ptr %m_len.i.i, align 8
  store i64 %1, ptr %m_len.i, align 8
  invoke void @_ZN18OpenImageIO_v2_6_010Filesystem4openERSt14basic_ofstreamIcSt11char_traitsIcEENS_17basic_string_viewIcS3_EESt13_Ios_Openmode(ptr noundef nonnull align 8 dereferenceable(248) %out, ptr noundef nonnull %agg.tmp, i32 noundef 16)
          to label %invoke.cont1 unwind label %lpad

invoke.cont1:                                     ; preds = %entry
  %vtable = load ptr, ptr %out, align 8
  %vbase.offset.ptr = getelementptr i8, ptr %vtable, i64 -24
  %vbase.offset = load i64, ptr %vbase.offset.ptr, align 8
  %add.ptr = getelementptr inbounds i8, ptr %out, i64 %vbase.offset
  %call = invoke noundef zeroext i1 @_ZNKSt9basic_iosIcSt11char_traitsIcEEcvbEv(ptr noundef nonnull align 8 dereferenceable(264) %add.ptr)
          to label %invoke.cont2 unwind label %lpad

invoke.cont2:                                     ; preds = %invoke.cont1
  br i1 %call, label %if.then, label %if.end

if.then:                                          ; preds = %invoke.cont2
  %vtable.i = load ptr, ptr %out, align 8
  %vbase.offset.ptr.i = getelementptr i8, ptr %vtable.i, i64 -24
  %vbase.offset.i = load i64, ptr %vbase.offset.ptr.i, align 8
  %add.ptr.i = getelementptr inbounds i8, ptr %out, i64 %vbase.offset.i
  %call.i2 = invoke noundef zeroext i1 @_ZNKSt9basic_iosIcSt11char_traitsIcEE4goodEv(ptr noundef nonnull align 8 dereferenceable(264) %add.ptr.i)
          to label %call.i.noexc unwind label %lpad

call.i.noexc:                                     ; preds = %if.then
  br i1 %call.i2, label %if.then.i, label %if.end

if.then.i:                                        ; preds = %call.i.noexc
  %2 = load ptr, ptr %str, align 8
  %m_len.i.i1 = getelementptr inbounds i8, ptr %str, i64 8
  %3 = load i64, ptr %m_len.i.i1, align 8
  %call3.i3 = invoke noundef nonnull align 8 dereferenceable(8) ptr @_ZNSo5writeEPKcl(ptr noundef nonnull align 8 dereferenceable(8) %out, ptr noundef %2, i64 noundef %3)
          to label %if.end unwind label %lpad

lpad:                                             ; preds = %if.then.i, %if.then, %if.end, %invoke.cont1, %entry
  %4 = landingpad { ptr, i32 }
          cleanup
  call void @_ZNSt14basic_ofstreamIcSt11char_traitsIcEED1Ev(ptr noundef nonnull align 8 dereferenceable(248) %out) #32
  resume { ptr, i32 } %4

if.end:                                           ; preds = %call.i.noexc, %if.then.i, %invoke.cont2
  %vtable5 = load ptr, ptr %out, align 8
  %vbase.offset.ptr6 = getelementptr i8, ptr %vtable5, i64 -24
  %vbase.offset7 = load i64, ptr %vbase.offset.ptr6, align 8
  %add.ptr8 = getelementptr inbounds i8, ptr %out, i64 %vbase.offset7
  %call10 = invoke noundef zeroext i1 @_ZNKSt9basic_iosIcSt11char_traitsIcEE4goodEv(ptr noundef nonnull align 8 dereferenceable(264) %add.ptr8)
          to label %invoke.cont9 unwind label %lpad

invoke.cont9:                                     ; preds = %if.end
  call void @_ZNSt14basic_ofstreamIcSt11char_traitsIcEED1Ev(ptr noundef nonnull align 8 dereferenceable(248) %out) #32
  ret i1 %call10
}